; Function Attrs: nounwind uwtable
define dso_local void @syncrep_yyrestart(ptr noundef %0, ptr noundef captures(none) %1) local_unnamed_addr #0 {
  %3 = getelementptr inbounds nuw i8, ptr %1, i64 40
  %4 = load ptr, ptr %3, align 8
  %.not = icmp eq ptr %4, null
  br i1 %.not, label %10, label %5

5:                                                ; preds = %2
  %6 = getelementptr inbounds nuw i8, ptr %1, i64 24
  %7 = load i64, ptr %6, align 8
  %8 = getelementptr inbounds nuw ptr, ptr %4, i64 %7
  %9 = load ptr, ptr %8, align 8
  %.not16 = icmp eq ptr %9, null
  br i1 %.not16, label %16, label %.thread

10:                                               ; preds = %2
  %11 = tail call ptr @palloc(i64 noundef 8) #15
  store ptr %11, ptr %3, align 8
  %.not28.i = icmp eq ptr %11, null
  br i1 %.not28.i, label %12, label %13

12:                                               ; preds = %10
  tail call fastcc void @yy_fatal_error(ptr noundef nonnull @.str.18) #16
  unreachable

13:                                               ; preds = %10
  store i64 0, ptr %11, align 8
  %14 = getelementptr inbounds nuw i8, ptr %1, i64 32
  store i64 1, ptr %14, align 8
  %15 = getelementptr inbounds nuw i8, ptr %1, i64 24
  store i64 0, ptr %15, align 8
  br label %27

16:                                               ; preds = %5
  %17 = getelementptr inbounds nuw i8, ptr %1, i64 32
  %18 = load i64, ptr %17, align 8
  %19 = add i64 %18, -1
  %.not29.i = icmp ult i64 %7, %19
  br i1 %.not29.i, label %27, label %syncrep_yyrealloc.exit.i

syncrep_yyrealloc.exit.i:                         ; preds = %16
  %20 = add i64 %18, 8
  %21 = shl i64 %20, 3
  %22 = tail call ptr @repalloc(ptr noundef nonnull %4, i64 noundef %21) #15
  store ptr %22, ptr %3, align 8
  %.not30.i = icmp eq ptr %22, null
  br i1 %.not30.i, label %23, label %24

23:                                               ; preds = %syncrep_yyrealloc.exit.i
  tail call fastcc void @yy_fatal_error(ptr noundef nonnull @.str.18) #16
  unreachable

24:                                               ; preds = %syncrep_yyrealloc.exit.i
  %25 = load i64, ptr %17, align 8
  %26 = getelementptr inbounds nuw ptr, ptr %22, i64 %25
  tail call void @llvm.memset.p0.i64(ptr noundef nonnull align 8 dereferenceable(64) %26, i8 0, i64 64, i1 false)
  store i64 %20, ptr %17, align 8
  br label %27

27:                                               ; preds = %24, %16, %13
  %28 = getelementptr inbounds nuw i8, ptr %1, i64 8
  %29 = load ptr, ptr %28, align 8
  %30 = tail call ptr @syncrep_yy_create_buffer(ptr noundef %29, i32 noundef 16384, ptr noundef nonnull %1)
  %31 = load ptr, ptr %3, align 8
  %32 = getelementptr inbounds nuw i8, ptr %1, i64 24
  %33 = load i64, ptr %32, align 8
  %34 = getelementptr inbounds nuw ptr, ptr %31, i64 %33
  store ptr %30, ptr %34, align 8
  %.pre = load ptr, ptr %3, align 8
  %.not17 = icmp eq ptr %.pre, null
  br i1 %.not17, label %.thread19, label %.thread

.thread19:                                        ; preds = %27
  %35 = tail call ptr @__errno_location() #17
  %36 = load i32, ptr %35, align 4
  br label %syncrep_yy_flush_buffer.exit.i

.thread:                                          ; preds = %5, %27
  %37 = phi ptr [ %.pre, %27 ], [ %4, %5 ]
  %38 = getelementptr inbounds nuw i8, ptr %1, i64 24
  %39 = load i64, ptr %38, align 8
  %40 = getelementptr inbounds nuw ptr, ptr %37, i64 %39
  %41 = load ptr, ptr %40, align 8
  %42 = tail call ptr @__errno_location() #17
  %43 = load i32, ptr %42, align 4
  %.not.i.i = icmp eq ptr %41, null
  br i1 %.not.i.i, label %syncrep_yy_flush_buffer.exit.i, label %44

44:                                               ; preds = %.thread
  %45 = getelementptr inbounds nuw i8, ptr %41, i64 28
  store i32 0, ptr %45, align 4
  %46 = getelementptr inbounds nuw i8, ptr %41, i64 8
  %47 = load ptr, ptr %46, align 8
  store i8 0, ptr %47, align 1
  %48 = load ptr, ptr %46, align 8
  %49 = getelementptr inbounds nuw i8, ptr %48, i64 1
  store i8 0, ptr %49, align 1
  %50 = load ptr, ptr %46, align 8
  %51 = getelementptr inbounds nuw i8, ptr %41, i64 16
  store ptr %50, ptr %51, align 8
  %52 = getelementptr inbounds nuw i8, ptr %41, i64 40
  store i32 1, ptr %52, align 8
  %53 = getelementptr inbounds nuw i8, ptr %41, i64 56
  store i32 0, ptr %53, align 8
  %54 = load ptr, ptr %3, align 8
  %.not15.i.i = icmp eq ptr %54, null
  br i1 %.not15.i.i, label %syncrep_yy_flush_buffer.exit.i, label %55

55:                                               ; preds = %44
  %56 = load i64, ptr %38, align 8
  %57 = getelementptr inbounds nuw ptr, ptr %54, i64 %56
  %58 = load ptr, ptr %57, align 8
  %59 = icmp eq ptr %41, %58
  br i1 %59, label %60, label %syncrep_yy_flush_buffer.exit.i

60:                                               ; preds = %55
  %61 = getelementptr inbounds nuw i8, ptr %58, i64 28
  %62 = load i32, ptr %61, align 4
  %63 = getelementptr inbounds nuw i8, ptr %1, i64 52
  store i32 %62, ptr %63, align 4
  %64 = load ptr, ptr %57, align 8
  %65 = getelementptr inbounds nuw i8, ptr %64, i64 16
  %66 = load ptr, ptr %65, align 8
  %67 = getelementptr inbounds nuw i8, ptr %1, i64 64
  store ptr %66, ptr %67, align 8
  %68 = getelementptr inbounds nuw i8, ptr %1, i64 128
  store ptr %66, ptr %68, align 8
  %69 = load ptr, ptr %57, align 8
  %70 = load ptr, ptr %69, align 8
  %71 = getelementptr inbounds nuw i8, ptr %1, i64 8
  store ptr %70, ptr %71, align 8
  %72 = load i8, ptr %66, align 1
  %73 = getelementptr inbounds nuw i8, ptr %1, i64 48
  store i8 %72, ptr %73, align 8
  br label %syncrep_yy_flush_buffer.exit.i

syncrep_yy_flush_buffer.exit.i:                   ; preds = %.thread19, %60, %55, %44, %.thread
  %74 = phi i32 [ %36, %.thread19 ], [ %43, %60 ], [ %43, %55 ], [ %43, %44 ], [ %43, %.thread ]
  %75 = phi ptr [ %35, %.thread19 ], [ %42, %60 ], [ %42, %55 ], [ %42, %44 ], [ %42, %.thread ]
  %76 = phi ptr [ null, %.thread19 ], [ %41, %60 ], [ %41, %55 ], [ %41, %44 ], [ null, %.thread ]
  store ptr %0, ptr %76, align 8
  %77 = getelementptr inbounds nuw i8, ptr %76, i64 52
  store i32 1, ptr %77, align 4
  %78 = load ptr, ptr %3, align 8
  %.not.i18 = icmp eq ptr %78, null
  br i1 %.not.i18, label %.thread.i, label %79

79:                                               ; preds = %syncrep_yy_flush_buffer.exit.i
  %80 = getelementptr inbounds nuw i8, ptr %1, i64 24
  %81 = load i64, ptr %80, align 8
  %82 = getelementptr inbounds nuw ptr, ptr %78, i64 %81
  %83 = load ptr, ptr %82, align 8
  %.not14.i = icmp eq ptr %76, %83
  br i1 %.not14.i, label %syncrep_yy_init_buffer.exit, label %.thread.i

.thread.i:                                        ; preds = %79, %syncrep_yy_flush_buffer.exit.i
  %84 = getelementptr inbounds nuw i8, ptr %76, i64 44
  store i32 1, ptr %84, align 4
  %85 = getelementptr inbounds nuw i8, ptr %76, i64 48
  store i32 0, ptr %85, align 8
  br label %syncrep_yy_init_buffer.exit

syncrep_yy_init_buffer.exit:                      ; preds = %79, %.thread.i
  %86 = getelementptr inbounds nuw i8, ptr %76, i64 36
  store i32 0, ptr %86, align 4
  store i32 %74, ptr %75, align 4
  %87 = load ptr, ptr %3, align 8
  %88 = getelementptr inbounds nuw i8, ptr %1, i64 24
  %89 = load i64, ptr %88, align 8
  %90 = getelementptr inbounds nuw ptr, ptr %87, i64 %89
  %91 = load ptr, ptr %90, align 8
  %92 = getelementptr inbounds nuw i8, ptr %91, i64 28
  %93 = load i32, ptr %92, align 4
  %94 = getelementptr inbounds nuw i8, ptr %1, i64 52
  store i32 %93, ptr %94, align 4
  %95 = load ptr, ptr %90, align 8
  %96 = getelementptr inbounds nuw i8, ptr %95, i64 16
  %97 = load ptr, ptr %96, align 8
  %98 = getelementptr inbounds nuw i8, ptr %1, i64 64
  store ptr %97, ptr %98, align 8
  %99 = getelementptr inbounds nuw i8, ptr %1, i64 128
  store ptr %97, ptr %99, align 8
  %100 = load ptr, ptr %90, align 8
  %101 = load ptr, ptr %100, align 8
  %102 = getelementptr inbounds nuw i8, ptr %1, i64 8
  store ptr %101, ptr %102, align 8
  %103 = load i8, ptr %97, align 1
  %104 = getelementptr inbounds nuw i8, ptr %1, i64 48
  store i8 %103, ptr %104, align 8
  ret void
}